Certificate:
    Data:
        Version: 3 (0x2)
        Serial Number: 9 (0x9)
        Signature Algorithm: sha256WithRSAEncryption
        Issuer: C=US, ST=Oregon, L=Portland, O=StirLab, OU=Certification Services Division, CN=StirLab Root CA
        Validity
            Not Before: Oct  7 17:18:24 2015 GMT
            Not After : Oct  3 17:18:24 2025 GMT
        Subject: C=US, ST=Oregon, L=Portland, O=StirLab, OU=Secure Web Server, CN=*.freeswitch.local
        Subject Public Key Info:
            Public Key Algorithm: rsaEncryption
            RSA Public Key: (4096 bit)
                Modulus (4096 bit):
                    00:ac:be:8e:0c:44:32:af:66:94:d9:76:52:d9:a2:
                    e3:c8:b9:a9:59:06:60:7d:96:4c:1f:73:6d:b6:69:
                    b9:b3:e6:72:9a:5c:e9:c1:a2:81:d3:ca:3d:db:e8:
                    7b:72:73:d4:10:8b:74:44:4b:9a:68:36:2f:75:1b:
                    df:f0:7e:8e:41:7f:d5:0d:0b:39:68:28:cd:6d:ca:
                    1b:70:37:e1:0c:03:5f:5a:ab:89:28:b3:86:91:df:
                    d2:85:7f:80:9a:d8:b3:ca:d1:60:49:16:bf:b7:e3:
                    73:98:77:9b:17:14:d7:21:6c:7a:50:f3:87:67:69:
                    c6:92:95:a8:e8:1e:ea:7d:87:15:14:1b:8a:a3:79:
                    ad:bd:7f:79:4e:28:9b:22:f7:38:de:b1:17:13:72:
                    c3:6f:aa:26:c4:ce:0f:c3:50:56:42:2d:c2:68:74:
                    ec:51:a6:98:03:1b:45:28:54:c9:cc:ec:dc:e0:f0:
                    bb:70:c4:80:d6:28:4e:79:69:3d:d4:7c:27:3d:73:
                    e9:7c:9f:68:35:11:b0:69:64:1e:1b:08:fd:b3:e9:
                    ee:cf:5a:09:f4:2a:5e:bc:f9:e8:6b:85:26:a5:37:
                    50:ab:5d:a7:8e:4b:42:aa:35:0d:8f:5e:86:1f:85:
                    b7:b1:41:e4:f7:9f:22:7a:77:fd:9f:b8:a7:e6:5e:
                    12:c9:ff:0d:ab:16:66:95:cf:9e:f3:31:3d:94:2b:
                    19:b1:40:62:1b:c9:52:04:6f:83:49:83:33:7b:79:
                    e3:a4:c3:34:ef:99:59:b6:41:fd:2a:b4:9a:82:00:
                    43:82:ff:cb:33:33:7b:e3:2f:19:53:db:4b:8e:9f:
                    d3:b8:c9:fc:41:91:2d:01:3a:b9:1e:98:61:72:79:
                    cd:3d:8d:61:16:41:a4:a2:06:44:ba:30:6b:94:ff:
                    92:96:65:34:28:55:c8:c4:a2:7f:80:ab:b7:b4:1a:
                    bd:db:cf:64:3f:7c:24:53:19:7a:fb:c1:2b:6a:d9:
                    13:4c:4e:8e:f6:8d:ae:a2:2b:fe:a3:ef:91:d2:03:
                    62:5b:5b:23:9d:a3:97:c6:7b:fb:51:7d:6b:a9:b1:
                    5e:76:0e:30:6b:14:fc:aa:34:cb:4c:39:70:ea:69:
                    f8:0e:ae:bf:de:1e:18:92:92:65:d7:b7:24:97:27:
                    ff:b3:ed:f2:56:be:c9:f2:79:22:2f:54:56:33:5e:
                    87:81:2f:c7:75:dc:de:32:c9:e7:cf:be:ae:fe:1f:
                    86:81:a8:c9:61:8b:26:c2:45:3e:41:41:4e:19:c4:
                    87:7f:16:43:fb:50:fb:86:10:57:4f:99:48:d9:3d:
                    ae:cf:01:0a:9e:81:43:7d:c0:ef:c3:6d:7a:25:25:
                    9e:fc:69
                Exponent: 65537 (0x10001)
        X509v3 extensions:
            X509v3 Authority Key Identifier: 
                keyid:49:30:AC:DE:E2:CA:00:23:3A:74:E0:C7:DD:AF:57:F6:06:87:49:C0

            X509v3 Extended Key Usage: 
                TLS Web Server Authentication, TLS Web Client Authentication, Microsoft Server Gated Crypto, Netscape Server Gated Crypto
            X509v3 Basic Constraints: critical
                CA:FALSE
    Signature Algorithm: sha256WithRSAEncryption
        05:08:ec:9f:a7:68:77:23:de:f3:33:0b:de:6b:6a:46:1c:e7:
        b3:2c:68:ec:10:f0:75:60:0d:ee:64:89:72:fe:06:89:af:b1:
        0c:4c:5f:4f:e2:ac:37:60:2f:ea:4d:91:96:23:62:19:cc:e5:
        7b:5c:65:74:4d:33:7e:11:3f:eb:de:0d:e4:cf:5e:53:bb:56:
        48:23:8e:d2:ed:03:72:61:3f:6e:93:07:5e:2a:2c:47:73:25:
        00:f5:02:8a:43:c4:7b:57:6d:fc:0c:39:85:bc:61:5d:44:6a:
        b5:e0:c5:96:a2:ba:e4:7e:52:8a:6f:07:87:72:05:2e:ce:b6:
        93:67:b9:13:d4:71:b3:4a:86:c9:5e:83:ef:78:a6:a8:c7:5d:
        28:9a:e9:f0:25:52:97:c4:47:ff:22:8b:dc:60:b3:87:4c:00:
        bd:23:11:66:69:1a:2f:83:a3:45:28:7d:d3:fb:67:6b:d7:cc:
        87:89:6c:8f:64:d1:75:92:ef:97:ac:fc:72:21:28:9d:e6:b2:
        73:56:18:eb:c1:84:e0:45:1f:72:f2:aa:17:d7:6f:a7:fa:77:
        fc:1d:27:32:ee:05:29:b2:cc:4c:74:3a:88:92:f2:be:46:c8:
        e9:c3:06:87:d5:47:8e:45:80:81:08:cb:5d:da:1e:44:f9:4c:
        54:6e:8d:85:5d:d7:56:53:5e:2d:c1:e2:32:d0:53:88:e7:25:
        a3:df:7d:fe:96:5f:53:53:1f:e1:cd:36:de:48:13:7c:b8:d6:
        1a:a2:79:a6:18:64:c2:4f:f9:57:26:da:54:ab:08:18:c1:94:
        a7:f4:bc:31:f5:21:56:8f:62:87:47:c5:7b:69:ab:f3:d0:38:
        38:1b:9a:15:be:1b:5c:4b:44:5b:b3:ed:5b:70:9d:f8:66:16:
        f9:4b:9d:46:85:5e:1c:75:41:2e:70:f2:d5:11:83:ad:e4:33:
        05:46:60:db:14:9e:ba:01:0f:f0:60:87:d9:09:05:ed:cf:2d:
        f6:f5:1d:5c:f7:41:c2:85:a3:2f:03:f3:d1:33:f3:49:bb:f8:
        a4:18:a7:a3:b0:aa:c0:21:5a:fc:27:61:ba:5c:37:69:b3:79:
        12:22:ad:c5:c8:19:f2:39:f0:a1:69:f6:53:05:d0:60:1c:30:
        f1:ac:1b:cb:09:0c:e1:d2:a5:e7:6f:9b:88:d3:45:d6:9e:73:
        53:fd:f3:07:bb:f0:34:0d:83:df:f0:14:36:cf:a9:88:10:0f:
        04:48:e7:ff:e0:d4:37:84:68:5c:8e:1e:c0:6a:a9:19:6f:3b:
        33:da:b3:57:dd:11:49:19:b9:97:68:b5:6a:31:3f:05:36:9b:
        bd:32:ae:e4:08:c0:f4:92
-----BEGIN CERTIFICATE-----
MIIF5jCCA86gAwIBAgIBCTANBgkqhkiG9w0BAQsFADCBhzELMAkGA1UEBhMCVVMx
DzANBgNVBAgTBk9yZWdvbjERMA8GA1UEBxMIUG9ydGxhbmQxEDAOBgNVBAoTB1N0
aXJMYWIxKDAmBgNVBAsTH0NlcnRpZmljYXRpb24gU2VydmljZXMgRGl2aXNpb24x
GDAWBgNVBAMTD1N0aXJMYWIgUm9vdCBDQTAeFw0xNTEwMDcxNzE4MjRaFw0yNTEw
MDMxNzE4MjRaMHwxCzAJBgNVBAYTAlVTMQ8wDQYDVQQIEwZPcmVnb24xETAPBgNV
BAcTCFBvcnRsYW5kMRAwDgYDVQQKEwdTdGlyTGFiMRowGAYDVQQLExFTZWN1cmUg
V2ViIFNlcnZlcjEbMBkGA1UEAxQSKi5mcmVlc3dpdGNoLmxvY2FsMIICIjANBgkq
hkiG9w0BAQEFAAOCAg8AMIICCgKCAgEArL6ODEQyr2aU2XZS2aLjyLmpWQZgfZZM
H3Nttmm5s+ZymlzpwaKB08o92+h7cnPUEIt0REuaaDYvdRvf8H6OQX/VDQs5aCjN
bcobcDfhDANfWquJKLOGkd/ShX+AmtizytFgSRa/t+NzmHebFxTXIWx6UPOHZ2nG
kpWo6B7qfYcVFBuKo3mtvX95TiibIvc43rEXE3LDb6omxM4Pw1BWQi3CaHTsUaaY
AxtFKFTJzOzc4PC7cMSA1ihOeWk91HwnPXPpfJ9oNRGwaWQeGwj9s+nuz1oJ9Cpe
vPnoa4UmpTdQq12njktCqjUNj16GH4W3sUHk958ienf9n7in5l4Syf8NqxZmlc+e
8zE9lCsZsUBiG8lSBG+DSYMze3njpMM075lZtkH9KrSaggBDgv/LMzN74y8ZU9tL
jp/TuMn8QZEtATq5HphhcnnNPY1hFkGkogZEujBrlP+SlmU0KFXIxKJ/gKu3tBq9
289kP3wkUxl6+8EratkTTE6O9o2uoiv+o++R0gNiW1sjnaOXxnv7UX1rqbFedg4w
axT8qjTLTDlw6mn4Dq6/3h4YkpJl17cklyf/s+3yVr7J8nkiL1RWM16HgS/Hddze
Msnnz76u/h+GgajJYYsmwkU+QUFOGcSHfxZD+1D7hhBXT5lI2T2uzwEKnoFDfcDv
w216JSWe/GkCAwEAAaNnMGUwHwYDVR0jBBgwFoAUSTCs3uLKACM6dODH3a9X9gaH
ScAwNAYDVR0lBC0wKwYIKwYBBQUHAwEGCCsGAQUFBwMCBgorBgEEAYI3CgMDBglg
hkgBhvhCBAEwDAYDVR0TAQH/BAIwADANBgkqhkiG9w0BAQsFAAOCAgEABQjsn6do
dyPe8zML3mtqRhznsyxo7BDwdWAN7mSJcv4Gia+xDExfT+KsN2Av6k2RliNiGczl
e1xldE0zfhE/694N5M9eU7tWSCOO0u0DcmE/bpMHXiosR3MlAPUCikPEe1dt/Aw5
hbxhXURqteDFlqK65H5Sim8Hh3IFLs62k2e5E9Rxs0qGyV6D73imqMddKJrp8CVS
l8RH/yKL3GCzh0wAvSMRZmkaL4OjRSh90/tna9fMh4lsj2TRdZLvl6z8ciEoneay
c1YY68GE4EUfcvKqF9dvp/p3/B0nMu4FKbLMTHQ6iJLyvkbI6cMGh9VHjkWAgQjL
XdoeRPlMVG6NhV3XVlNeLcHiMtBTiOclo999/pZfU1Mf4c023kgTfLjWGqJ5phhk
wk/5VybaVKsIGMGUp/S8MfUhVo9ih0fFe2mr89A4OBuaFb4bXEtEW7PtW3Cd+GYW
+UudRoVeHHVBLnDy1RGDreQzBUZg2xSeugEP8GCH2QkF7c8t9vUdXPdBwoWjLwPz
0TPzSbv4pBino7CqwCFa/Cdhulw3abN5EiKtxcgZ8jnwoWn2UwXQYBww8awbywkM
4dKl52+biNNF1p5zU/3zB7vwNA2D3/AUNs+piBAPBEjn/+DUN4RoXI4ewGqpGW87
M9qzV90RSRm5l2i1ajE/BTabvTKu5AjA9JI=
-----END CERTIFICATE-----
